target datalayout = "e-m:e-p270:32:32-p271:32:32-p272:64:64-i64:64-i128:128-f80:128-n8:16:32:64-S128"
target triple = "x86_64-pc-linux-gnu"

%struct.conn = type { i32, ptr, ptr }

@.str.62 = private unnamed_addr constant [10 x i8] c"testapp.c\00", align 1
@stderr = external global ptr, align 8
@con = internal global ptr null, align 8
@.str.239 = private unnamed_addr constant [20 x i8] c"Failed to read: %s\0A\00", align 1
@.str.240 = private unnamed_addr constant [8 x i8] c"nr == 1\00", align 1
@__PRETTY_FUNCTION__.read_ascii_response = private unnamed_addr constant [41 x i8] c"void read_ascii_response(char *, size_t)\00", align 1
@.str.241 = private unnamed_addr constant [18 x i8] c"offset + 1 < size\00", align 1

; Function Attrs: nounwind uwtable
define internal void @read_ascii_response(ptr noundef %0, i64 noundef %1) #0 {
  %3 = alloca ptr, align 8
  %4 = alloca i64, align 8
  %5 = alloca i64, align 8
  %6 = alloca i8, align 1
  %7 = alloca i64, align 8
  store ptr %0, ptr %3, align 8, !tbaa !8
  store i64 %1, ptr %4, align 8, !tbaa !36
  call void @llvm.lifetime.start.p0(i64 8, ptr %5) #12
  store i64 0, ptr %5, align 8, !tbaa !36
  call void @llvm.lifetime.start.p0(i64 1, ptr %6) #12
  store i8 1, ptr %6, align 1, !tbaa !31
  br label %8

8:                                                ; preds = %59, %2
  call void @llvm.lifetime.start.p0(i64 8, ptr %7) #12
  %9 = load ptr, ptr @con, align 8, !tbaa !39
  %10 = getelementptr inbounds nuw %struct.conn, ptr %9, i32 0, i32 1
  %11 = load ptr, ptr %10, align 8, !tbaa !52
  %12 = load ptr, ptr @con, align 8, !tbaa !39
  %13 = load ptr, ptr %3, align 8, !tbaa !8
  %14 = load i64, ptr %5, align 8, !tbaa !36
  %15 = getelementptr inbounds i8, ptr %13, i64 %14
  %16 = call i64 %11(ptr noundef %12, ptr noundef %15, i64 noundef 1)
  store i64 %16, ptr %7, align 8, !tbaa !36
  %17 = load i64, ptr %7, align 8, !tbaa !36
  %18 = icmp eq i64 %17, -1
  br i1 %18, label %19, label %30

19:                                               ; preds = %8
  %20 = call ptr @__errno_location() #16
  %21 = load i32, ptr %20, align 4, !tbaa !10
  %22 = icmp ne i32 %21, 4
  br i1 %22, label %23, label %29

23:                                               ; preds = %19
  %24 = load ptr, ptr @stderr, align 8, !tbaa !37
  %25 = call ptr @__errno_location() #16
  %26 = load i32, ptr %25, align 4, !tbaa !10
  %27 = call ptr @strerror(i32 noundef %26) #12
  %28 = call i32 (ptr, ptr, ...) @fprintf(ptr noundef %24, ptr noundef @.str.239, ptr noundef %27) #12
  call void @abort() #13
  unreachable

29:                                               ; preds = %19
  br label %58

30:                                               ; preds = %8
  %31 = load i64, ptr %7, align 8, !tbaa !36
  %32 = icmp eq i64 %31, 1
  br i1 %32, label %33, label %34

33:                                               ; preds = %30
  br label %35

34:                                               ; preds = %30
  call void @__assert_fail(ptr noundef @.str.240, ptr noundef @.str.62, i32 noundef 820, ptr noundef @__PRETTY_FUNCTION__.read_ascii_response) #13
  unreachable

35:                                               ; preds = %33
  %36 = load ptr, ptr %3, align 8, !tbaa !8
  %37 = load i64, ptr %5, align 8, !tbaa !36
  %38 = getelementptr inbounds i8, ptr %36, i64 %37
  %39 = load i8, ptr %38, align 1, !tbaa !14
  %40 = sext i8 %39 to i32
  %41 = icmp eq i32 %40, 10
  br i1 %41, label %42, label %47

42:                                               ; preds = %35
  store i8 0, ptr %6, align 1, !tbaa !31
  %43 = load ptr, ptr %3, align 8, !tbaa !8
  %44 = load i64, ptr %5, align 8, !tbaa !36
  %45 = add nsw i64 %44, 1
  %46 = getelementptr inbounds i8, ptr %43, i64 %45
  store i8 0, ptr %46, align 1, !tbaa !14
  br label %47

47:                                               ; preds = %42, %35
  %48 = load i64, ptr %7, align 8, !tbaa !36
  %49 = load i64, ptr %5, align 8, !tbaa !36
  %50 = add nsw i64 %49, %48
  store i64 %50, ptr %5, align 8, !tbaa !36
  %51 = load i64, ptr %5, align 8, !tbaa !36
  %52 = add nsw i64 %51, 1
  %53 = load i64, ptr %4, align 8, !tbaa !36
  %54 = icmp ult i64 %52, %53
  br i1 %54, label %55, label %56

55:                                               ; preds = %47
  br label %57

56:                                               ; preds = %47
  call void @__assert_fail(ptr noundef @.str.241, ptr noundef @.str.62, i32 noundef 826, ptr noundef @__PRETTY_FUNCTION__.read_ascii_response) #13
  unreachable

57:                                               ; preds = %55
  br label %58

58:                                               ; preds = %57, %29
  call void @llvm.lifetime.end.p0(i64 8, ptr %7) #12
  br label %59

59:                                               ; preds = %58
  %60 = load i8, ptr %6, align 1, !tbaa !31, !range !34, !noundef !35
  %61 = trunc i8 %60 to i1
  br i1 %61, label %8, label %62, !llvm.loop !80

62:                                               ; preds = %59
  call void @llvm.lifetime.end.p0(i64 1, ptr %6) #12
  call void @llvm.lifetime.end.p0(i64 8, ptr %5) #12
  ret void
}