; Function Attrs: nounwind uwtable
define internal fastcc void @read_ascii_response(ptr noundef nonnull %0, i64 noundef range(i64 80, 1025) %1) unnamed_addr #0 {
  br label %3

3:                                                ; preds = %27, %2
  %.0 = phi i64 [ 0, %2 ], [ %.1, %27 ]
  %4 = load ptr, ptr @con, align 8, !tbaa !35
  %5 = getelementptr inbounds nuw i8, ptr %4, i64 8
  %6 = load ptr, ptr %5, align 8, !tbaa !47
  %7 = getelementptr inbounds i8, ptr %0, i64 %.0
  %8 = tail call i64 %6(ptr noundef %4, ptr noundef nonnull %7, i64 noundef 1) #21
  switch i64 %8, label %16 [
    i64 -1, label %9
    i64 1, label %17
  ]

9:                                                ; preds = %3
  %10 = tail call ptr @__errno_location() #25
  %11 = load i32, ptr %10, align 4, !tbaa !9
  %.not = icmp eq i32 %11, 4
  br i1 %.not, label %27, label %12

12:                                               ; preds = %9
  %13 = load ptr, ptr @stderr, align 8, !tbaa !44
  %14 = tail call ptr @strerror(i32 noundef %11) #21
  %15 = tail call i32 (ptr, ptr, ...) @fprintf(ptr noundef %13, ptr noundef nonnull @.str.239, ptr noundef %14) #26
  tail call void @abort() #22
  unreachable

16:                                               ; preds = %3
  tail call void @__assert_fail(ptr noundef nonnull @.str.240, ptr noundef nonnull @.str.62, i32 noundef 820, ptr noundef nonnull @__PRETTY_FUNCTION__.read_ascii_response) #22
  unreachable

17:                                               ; preds = %3
  %18 = load i8, ptr %7, align 1, !tbaa !6
  %19 = icmp ne i8 %18, 10
  br i1 %19, label %22, label %20

20:                                               ; preds = %17
  %21 = getelementptr i8, ptr %7, i64 1
  store i8 0, ptr %21, align 1, !tbaa !6
  br label %22

22:                                               ; preds = %20, %17
  %23 = add nsw i64 %.0, 1
  %24 = add nsw i64 %.0, 2
  %25 = icmp ult i64 %24, %1
  br i1 %25, label %27, label %26

26:                                               ; preds = %22
  tail call void @__assert_fail(ptr noundef nonnull @.str.241, ptr noundef nonnull @.str.62, i32 noundef 826, ptr noundef nonnull @__PRETTY_FUNCTION__.read_ascii_response) #22
  unreachable

27:                                               ; preds = %22, %9
  %.113 = phi i1 [ true, %9 ], [ %19, %22 ]
  %.1 = phi i64 [ %.0, %9 ], [ %23, %22 ]
  br i1 %.113, label %3, label %28, !llvm.loop !75

28:                                               ; preds = %27
  ret void
}